target datalayout = "e-m:e-p270:32:32-p271:32:32-p272:64:64-i64:64-i128:128-f80:128-n8:16:32:64-S128"
target triple = "x86_64-pc-linux-gnu"

; Function Attrs: mustprogress nounwind uwtable
define noundef zeroext i1 @_ZN6duckdb22ParquetStatisticsUtils20BloomFilterSupportedERKNS_13LogicalTypeIdE(ptr noundef nonnull align 1 dereferenceable(1) %0) #6 align 2 {
  %2 = alloca i1, align 1
  %3 = alloca ptr, align 8
  store ptr %0, ptr %3, align 8, !tbaa !116
  %4 = load ptr, ptr %3, align 8, !tbaa !116
  %5 = load i8, ptr %4, align 1, !tbaa !117
  switch i8 %5, label %7 [
    i8 11, label %6
    i8 28, label %6
    i8 12, label %6
    i8 29, label %6
    i8 13, label %6
    i8 30, label %6
    i8 14, label %6
    i8 31, label %6
    i8 22, label %6
    i8 23, label %6
    i8 25, label %6
    i8 26, label %6
  ]

6:                                                ; preds = %1, %1, %1, %1, %1, %1, %1, %1, %1, %1, %1, %1
  store i1 true, ptr %2, align 1
  br label %8

7:                                                ; preds = %1
  store i1 false, ptr %2, align 1
  br label %8

8:                                                ; preds = %7, %6
  %9 = load i1, ptr %2, align 1
  ret i1 %9
}