; Function Attrs: mustprogress nofree norecurse nosync nounwind willreturn memory(argmem: read) uwtable
define noundef zeroext i1 @_ZN6duckdb22ParquetStatisticsUtils20BloomFilterSupportedERKNS_13LogicalTypeIdE(ptr noundef nonnull readonly align 1 captures(none) dereferenceable(1) %0) local_unnamed_addr #8 align 2 {
  %2 = load i8, ptr %0, align 1, !tbaa !69
  %3 = icmp ult i8 %2, 32
  %switch.cast = zext nneg i8 %2 to i32
  %switch.downshift = lshr i32 -155158528, %switch.cast
  %switch.masked = trunc i32 %switch.downshift to i1
  %.0 = select i1 %3, i1 %switch.masked, i1 false
  ret i1 %.0
}